target datalayout = "e-m:e-p270:32:32-p271:32:32-p272:64:64-i64:64-i128:128-f80:128-n8:16:32:64-S128"
target triple = "x86_64-pc-linux-gnu"

%"class.icu_77::MaybeStackArray" = type <{ ptr, i32, i8, [40 x i8], [3 x i8] }>
%"class.icu_77::CharString" = type { %"class.icu_77::MaybeStackArray", i32, [4 x i8] }
%"class.icu_77::StringPiece" = type <{ ptr, i32, [4 x i8] }>

; Function Attrs: mustprogress nounwind uwtable
define linkonce_odr noundef ptr @_ZNK6icu_7711StringPiece4dataEv(ptr noundef nonnull align 8 dereferenceable(12) %0) #0 comdat align 2 {
  %2 = alloca ptr, align 8
  store ptr %0, ptr %2, align 8, !tbaa !31
  %3 = load ptr, ptr %2, align 8
  %4 = getelementptr inbounds nuw %"class.icu_77::StringPiece", ptr %3, i32 0, i32 0
  %5 = load ptr, ptr %4, align 8, !tbaa !35
  ret ptr %5
}

; Function Attrs: mustprogress nounwind uwtable
define linkonce_odr noundef i32 @_ZNK6icu_7711StringPiece6lengthEv(ptr noundef nonnull align 8 dereferenceable(12) %0) #0 comdat align 2 {
  %2 = alloca ptr, align 8
  store ptr %0, ptr %2, align 8, !tbaa !31
  %3 = load ptr, ptr %2, align 8
  %4 = getelementptr inbounds nuw %"class.icu_77::StringPiece", ptr %3, i32 0, i32 1
  %5 = load i32, ptr %4, align 8, !tbaa !33
  ret i32 %5
}

; Function Attrs: mustprogress nounwind uwtable
define weak_odr noundef ptr @_ZNK6icu_7715MaybeStackArrayIcLi40EE8getAliasEv(ptr noundef nonnull align 8 dereferenceable(53) %0) #0 comdat align 2 {
  %2 = alloca ptr, align 8
  store ptr %0, ptr %2, align 8, !tbaa !3
  %3 = load ptr, ptr %2, align 8
  %4 = getelementptr inbounds nuw %"class.icu_77::MaybeStackArray", ptr %3, i32 0, i32 0
  %5 = load ptr, ptr %4, align 8, !tbaa !8
  ret ptr %5
}

; Function Attrs: mustprogress nounwind uwtable
define linkonce_odr noundef signext i8 @_ZNK6icu_7711StringPiece5emptyEv(ptr noundef nonnull align 8 dereferenceable(12) %0) #0 comdat align 2 {
  %2 = alloca ptr, align 8
  store ptr %0, ptr %2, align 8, !tbaa !31
  %3 = load ptr, ptr %2, align 8
  %4 = getelementptr inbounds nuw %"class.icu_77::StringPiece", ptr %3, i32 0, i32 1
  %5 = load i32, ptr %4, align 8, !tbaa !33
  %6 = icmp eq i32 %5, 0
  %7 = zext i1 %6 to i8
  ret i8 %7
}

; Function Attrs: mustprogress uwtable
define noundef zeroext i1 @_ZNK6icu_7710CharString8containsENS_11StringPieceE(ptr noundef nonnull align 8 dereferenceable(60) %0, ptr %1, i32 %2) #1 align 2 {
  %4 = alloca i1, align 1
  %5 = alloca %"class.icu_77::StringPiece", align 8
  %6 = alloca ptr, align 8
  %7 = alloca ptr, align 8
  %8 = alloca i32, align 4
  %9 = alloca i32, align 4
  %10 = alloca i32, align 4
  %11 = getelementptr inbounds nuw { ptr, i32 }, ptr %5, i32 0, i32 0
  store ptr %1, ptr %11, align 8
  %12 = getelementptr inbounds nuw { ptr, i32 }, ptr %5, i32 0, i32 1
  store i32 %2, ptr %12, align 8
  store ptr %0, ptr %6, align 8, !tbaa !23
  %13 = load ptr, ptr %6, align 8
  %14 = call noundef signext i8 @_ZNK6icu_7711StringPiece5emptyEv(ptr noundef nonnull align 8 dereferenceable(12) %5)
  %15 = icmp ne i8 %14, 0
  br i1 %15, label %16, label %17

16:                                               ; preds = %3
  store i1 false, ptr %4, align 1
  br label %48

17:                                               ; preds = %3
  call void @llvm.lifetime.start.p0(i64 8, ptr %7) #11
  %18 = getelementptr inbounds nuw %"class.icu_77::CharString", ptr %13, i32 0, i32 0
  %19 = call noundef ptr @_ZNK6icu_7715MaybeStackArrayIcLi40EE8getAliasEv(ptr noundef nonnull align 8 dereferenceable(53) %18)
  store ptr %19, ptr %7, align 8, !tbaa !17
  call void @llvm.lifetime.start.p0(i64 4, ptr %8) #11
  %20 = getelementptr inbounds nuw %"class.icu_77::CharString", ptr %13, i32 0, i32 1
  %21 = load i32, ptr %20, align 8, !tbaa !25
  %22 = call noundef i32 @_ZNK6icu_7711StringPiece6lengthEv(ptr noundef nonnull align 8 dereferenceable(12) %5)
  %23 = sub nsw i32 %21, %22
  store i32 %23, ptr %8, align 4, !tbaa !14
  call void @llvm.lifetime.start.p0(i64 4, ptr %9) #11
  store i32 0, ptr %9, align 4, !tbaa !14
  br label %24

24:                                               ; preds = %41, %17
  %25 = load i32, ptr %9, align 4, !tbaa !14
  %26 = load i32, ptr %8, align 4, !tbaa !14
  %27 = icmp sle i32 %25, %26
  br i1 %27, label %29, label %28

28:                                               ; preds = %24
  store i32 2, ptr %10, align 4
  br label %44

29:                                               ; preds = %24
  %30 = load ptr, ptr %7, align 8, !tbaa !17
  %31 = load i32, ptr %9, align 4, !tbaa !14
  %32 = sext i32 %31 to i64
  %33 = getelementptr inbounds i8, ptr %30, i64 %32
  %34 = call noundef ptr @_ZNK6icu_7711StringPiece4dataEv(ptr noundef nonnull align 8 dereferenceable(12) %5)
  %35 = call noundef i32 @_ZNK6icu_7711StringPiece6lengthEv(ptr noundef nonnull align 8 dereferenceable(12) %5)
  %36 = sext i32 %35 to i64
  %37 = call i32 @memcmp(ptr noundef %33, ptr noundef %34, i64 noundef %36) #14
  %38 = icmp eq i32 %37, 0
  br i1 %38, label %39, label %40

39:                                               ; preds = %29
  store i1 true, ptr %4, align 1
  store i32 1, ptr %10, align 4
  br label %44

40:                                               ; preds = %29
  br label %41

41:                                               ; preds = %40
  %42 = load i32, ptr %9, align 4, !tbaa !14
  %43 = add nsw i32 %42, 1
  store i32 %43, ptr %9, align 4, !tbaa !14
  br label %24, !llvm.loop !30

44:                                               ; preds = %39, %28
  call void @llvm.lifetime.end.p0(i64 4, ptr %9) #11
  %45 = load i32, ptr %10, align 4
  switch i32 %45, label %47 [
    i32 2, label %46
  ]

46:                                               ; preds = %44
  store i1 false, ptr %4, align 1
  store i32 1, ptr %10, align 4
  br label %47

47:                                               ; preds = %46, %44
  call void @llvm.lifetime.end.p0(i64 4, ptr %8) #11
  call void @llvm.lifetime.end.p0(i64 8, ptr %7) #11
  br label %48

48:                                               ; preds = %47, %16
  %49 = load i1, ptr %4, align 1
  ret i1 %49
}