; Function Attrs: mustprogress nofree nounwind willreturn memory(read, inaccessiblemem: none) uwtable
define noundef zeroext i1 @_ZNK6icu_7710CharString8containsENS_11StringPieceE(ptr noundef nonnull readonly align 8 captures(none) dereferenceable(60) %0, ptr readonly captures(none) %1, i32 %2) local_unnamed_addr #11 align 2 {
  %.not = icmp eq i32 %2, 0
  br i1 %.not, label %.critedge, label %4

4:                                                ; preds = %3
  %5 = load ptr, ptr %0, align 8, !tbaa !3
  %6 = getelementptr inbounds nuw i8, ptr %0, i64 56
  %7 = load i32, ptr %6, align 8, !tbaa !15
  %.not9.not12 = icmp slt i32 %7, %2
  br i1 %.not9.not12, label %.critedge, label %.lr.ph

.lr.ph:                                           ; preds = %4
  %8 = sext i32 %2 to i64
  %9 = add i32 %7, 1
  %10 = sub i32 %9, %2
  %wide.trip.count = zext i32 %10 to i64
  br label %11

11:                                               ; preds = %11, %.lr.ph
  %indvars.iv = phi i64 [ 0, %.lr.ph ], [ %indvars.iv.next, %11 ]
  %12 = getelementptr inbounds nuw i8, ptr %5, i64 %indvars.iv
  %bcmp = tail call i32 @bcmp(ptr %12, ptr %1, i64 %8)
  %13 = icmp eq i32 %bcmp, 0
  %indvars.iv.next = add nuw nsw i64 %indvars.iv, 1
  %exitcond.not = icmp eq i64 %indvars.iv.next, %wide.trip.count
  %or.cond = select i1 %13, i1 true, i1 %exitcond.not
  br i1 %or.cond, label %.critedge, label %11, !llvm.loop !20

.critedge:                                        ; preds = %11, %4, %3
  %.08 = phi i1 [ false, %3 ], [ false, %4 ], [ %13, %11 ]
  ret i1 %.08
}